target datalayout = "e-m:e-p270:32:32-p271:32:32-p272:64:64-i64:64-i128:128-f80:128-n8:16:32:64-S128"
target triple = "x86_64-pc-linux-gnu"

%struct.git_hash_algo = type { ptr, i32, i64, i64, i64, ptr, ptr, ptr, ptr, ptr, ptr, ptr, ptr, ptr }
%struct.index_state = type { ptr, i32, i32, i32, i32, ptr, ptr, ptr, %struct.cache_time, i8, i32, %struct.hashmap, %struct.hashmap, %struct.object_id, ptr, ptr, ptr, ptr, ptr, ptr, ptr }
%struct.cache_time = type { i32, i32 }
%struct.hashmap = type { ptr, ptr, ptr, i32, i32, i32, i32, i8 }
%struct.object_id = type { [32 x i8], i32 }
%struct.repository = type { ptr, ptr, ptr, ptr, ptr, %struct.strmap, %struct.strmap, %struct.repo_path_cache, ptr, ptr, ptr, ptr, %struct.repo_settings, ptr, ptr, ptr, ptr, ptr, ptr, i32, i32, i32, ptr, ptr, i32, i32, i8 }
%struct.strmap = type { %struct.hashmap, ptr, i8 }
%struct.repo_path_cache = type { ptr, ptr, ptr, ptr, ptr, ptr, ptr }
%struct.repo_settings = type { i32, i32, i32, i32, i32, i32, i32, i32, i32, i32, i32, i32, ptr, i32, i32, i32, i32, i32, i32, i32, i64, i64, i64 }
%struct.load_index_extensions = type { i64, ptr, ptr, i64, i64 }

@the_repository = external global ptr, align 8
@.str.32 = private unnamed_addr constant [19 x i8] c"index file corrupt\00", align 1
@.str.64 = private unnamed_addr constant [54 x i8] c"index uses %.4s extension, which we do not understand\00", align 1
@stderr = external global ptr, align 8
@.str.65 = private unnamed_addr constant [24 x i8] c"ignoring %.4s extension\00", align 1

; Function Attrs: inlinehint nounwind uwtable
define internal i32 @const_error() #3 {
  ret i32 -1
}

; Function Attrs: nounwind uwtable
define internal i32 @read_index_extension(ptr noundef %0, ptr noundef %1, ptr noundef %2, i64 noundef %3) #0 {
  %5 = alloca i32, align 4
  %6 = alloca ptr, align 8
  %7 = alloca ptr, align 8
  %8 = alloca ptr, align 8
  %9 = alloca i64, align 8
  store ptr %0, ptr %6, align 8, !tbaa !4
  store ptr %1, ptr %7, align 8, !tbaa !11
  store ptr %2, ptr %8, align 8, !tbaa !11
  store i64 %3, ptr %9, align 8, !tbaa !31
  %10 = load ptr, ptr %7, align 8, !tbaa !11
  %11 = getelementptr inbounds i8, ptr %10, i64 0
  %12 = load i8, ptr %11, align 1, !tbaa !73
  %13 = sext i8 %12 to i32
  %14 = shl i32 %13, 24
  %15 = load ptr, ptr %7, align 8, !tbaa !11
  %16 = getelementptr inbounds i8, ptr %15, i64 1
  %17 = load i8, ptr %16, align 1, !tbaa !73
  %18 = sext i8 %17 to i32
  %19 = shl i32 %18, 16
  %20 = or i32 %14, %19
  %21 = load ptr, ptr %7, align 8, !tbaa !11
  %22 = getelementptr inbounds i8, ptr %21, i64 2
  %23 = load i8, ptr %22, align 1, !tbaa !73
  %24 = sext i8 %23 to i32
  %25 = shl i32 %24, 8
  %26 = or i32 %20, %25
  %27 = load ptr, ptr %7, align 8, !tbaa !11
  %28 = getelementptr inbounds i8, ptr %27, i64 3
  %29 = load i8, ptr %28, align 1, !tbaa !73
  %30 = sext i8 %29 to i32
  %31 = or i32 %26, %30
  switch i32 %31, label %70 [
    i32 1414677829, label %32
    i32 1380275523, label %38
    i32 1818848875, label %47
    i32 1431196754, label %55
    i32 1179864398, label %61
    i32 1162824005, label %66
    i32 1229279060, label %66
    i32 1935960434, label %67
  ]

32:                                               ; preds = %4
  %33 = load ptr, ptr %8, align 8, !tbaa !11
  %34 = load i64, ptr %9, align 8, !tbaa !31
  %35 = call ptr @cache_tree_read(ptr noundef %33, i64 noundef %34)
  %36 = load ptr, ptr %6, align 8, !tbaa !4
  %37 = getelementptr inbounds nuw %struct.index_state, ptr %36, i32 0, i32 6
  store ptr %35, ptr %37, align 8, !tbaa !207
  br label %90

38:                                               ; preds = %4
  %39 = load ptr, ptr %8, align 8, !tbaa !11
  %40 = load i64, ptr %9, align 8, !tbaa !31
  %41 = load ptr, ptr @the_repository, align 8, !tbaa !48
  %42 = getelementptr inbounds nuw %struct.repository, ptr %41, i32 0, i32 17
  %43 = load ptr, ptr %42, align 8, !tbaa !49
  %44 = call ptr @resolve_undo_read(ptr noundef %39, i64 noundef %40, ptr noundef %43)
  %45 = load ptr, ptr %6, align 8, !tbaa !4
  %46 = getelementptr inbounds nuw %struct.index_state, ptr %45, i32 0, i32 5
  store ptr %44, ptr %46, align 8, !tbaa !273
  br label %90

47:                                               ; preds = %4
  %48 = load ptr, ptr %6, align 8, !tbaa !4
  %49 = load ptr, ptr %8, align 8, !tbaa !11
  %50 = load i64, ptr %9, align 8, !tbaa !31
  %51 = call i32 @read_link_extension(ptr noundef %48, ptr noundef %49, i64 noundef %50)
  %52 = icmp ne i32 %51, 0
  br i1 %52, label %53, label %54

53:                                               ; preds = %47
  store i32 -1, ptr %5, align 4
  br label %91

54:                                               ; preds = %47
  br label %90

55:                                               ; preds = %4
  %56 = load ptr, ptr %8, align 8, !tbaa !11
  %57 = load i64, ptr %9, align 8, !tbaa !31
  %58 = call ptr @read_untracked_extension(ptr noundef %56, i64 noundef %57)
  %59 = load ptr, ptr %6, align 8, !tbaa !4
  %60 = getelementptr inbounds nuw %struct.index_state, ptr %59, i32 0, i32 14
  store ptr %58, ptr %60, align 8, !tbaa !158
  br label %90

61:                                               ; preds = %4
  %62 = load ptr, ptr %6, align 8, !tbaa !4
  %63 = load ptr, ptr %8, align 8, !tbaa !11
  %64 = load i64, ptr %9, align 8, !tbaa !31
  %65 = call i32 @read_fsmonitor_extension(ptr noundef %62, ptr noundef %63, i64 noundef %64)
  br label %90

66:                                               ; preds = %4, %4
  br label %90

67:                                               ; preds = %4
  %68 = load ptr, ptr %6, align 8, !tbaa !4
  %69 = getelementptr inbounds nuw %struct.index_state, ptr %68, i32 0, i32 10
  store i32 1, ptr %69, align 4, !tbaa !67
  br label %90

70:                                               ; preds = %4
  %71 = load ptr, ptr %7, align 8, !tbaa !11
  %72 = load i8, ptr %71, align 1, !tbaa !73
  %73 = sext i8 %72 to i32
  %74 = icmp slt i32 %73, 65
  br i1 %74, label %80, label %75

75:                                               ; preds = %70
  %76 = load ptr, ptr %7, align 8, !tbaa !11
  %77 = load i8, ptr %76, align 1, !tbaa !73
  %78 = sext i8 %77 to i32
  %79 = icmp slt i32 90, %78
  br i1 %79, label %80, label %85

80:                                               ; preds = %75, %70
  %81 = call ptr @_(ptr noundef @.str.64)
  %82 = load ptr, ptr %7, align 8, !tbaa !11
  %83 = call i32 (ptr, ...) @error(ptr noundef %81, ptr noundef %82)
  %84 = call i32 @const_error()
  store i32 %84, ptr %5, align 4
  br label %91

85:                                               ; preds = %75
  %86 = load ptr, ptr @stderr, align 8, !tbaa !274
  %87 = call ptr @_(ptr noundef @.str.65)
  %88 = load ptr, ptr %7, align 8, !tbaa !11
  %89 = call i32 (ptr, ptr, ...) @fprintf_ln(ptr noundef %86, ptr noundef %87, ptr noundef %88)
  br label %90

90:                                               ; preds = %85, %67, %66, %61, %55, %54, %38, %32
  store i32 0, ptr %5, align 4
  br label %91

91:                                               ; preds = %90, %80, %53
  %92 = load i32, ptr %5, align 4
  ret i32 %92
}

; Function Attrs: inlinehint nounwind uwtable
define internal i32 @get_be32(ptr noundef %0) #3 {
  %2 = alloca ptr, align 8
  %3 = alloca ptr, align 8
  store ptr %0, ptr %2, align 8, !tbaa !64
  call void @llvm.lifetime.start.p0(i64 8, ptr %3) #12
  %4 = load ptr, ptr %2, align 8, !tbaa !64
  store ptr %4, ptr %3, align 8, !tbaa !11
  %5 = load ptr, ptr %3, align 8, !tbaa !11
  %6 = getelementptr inbounds i8, ptr %5, i64 0
  %7 = load i8, ptr %6, align 1, !tbaa !73
  %8 = zext i8 %7 to i32
  %9 = shl i32 %8, 24
  %10 = load ptr, ptr %3, align 8, !tbaa !11
  %11 = getelementptr inbounds i8, ptr %10, i64 1
  %12 = load i8, ptr %11, align 1, !tbaa !73
  %13 = zext i8 %12 to i32
  %14 = shl i32 %13, 16
  %15 = or i32 %9, %14
  %16 = load ptr, ptr %3, align 8, !tbaa !11
  %17 = getelementptr inbounds i8, ptr %16, i64 2
  %18 = load i8, ptr %17, align 1, !tbaa !73
  %19 = zext i8 %18 to i32
  %20 = shl i32 %19, 8
  %21 = or i32 %15, %20
  %22 = load ptr, ptr %3, align 8, !tbaa !11
  %23 = getelementptr inbounds i8, ptr %22, i64 3
  %24 = load i8, ptr %23, align 1, !tbaa !73
  %25 = zext i8 %24 to i32
  %26 = shl i32 %25, 0
  %27 = or i32 %21, %26
  call void @llvm.lifetime.end.p0(i64 8, ptr %3) #12
  ret i32 %27
}

; Function Attrs: nounwind uwtable
define internal ptr @load_index_extensions(ptr noundef %0) #0 {
  %2 = alloca ptr, align 8
  %3 = alloca ptr, align 8
  %4 = alloca i64, align 8
  %5 = alloca i32, align 4
  store ptr %0, ptr %2, align 8, !tbaa !64
  call void @llvm.lifetime.start.p0(i64 8, ptr %3) #12
  %6 = load ptr, ptr %2, align 8, !tbaa !64
  store ptr %6, ptr %3, align 8, !tbaa !133
  call void @llvm.lifetime.start.p0(i64 8, ptr %4) #12
  %7 = load ptr, ptr %3, align 8, !tbaa !133
  %8 = getelementptr inbounds nuw %struct.load_index_extensions, ptr %7, i32 0, i32 4
  %9 = load i64, ptr %8, align 8, !tbaa !121
  store i64 %9, ptr %4, align 8, !tbaa !31
  br label %10

10:                                               ; preds = %58, %1
  %11 = load i64, ptr %4, align 8, !tbaa !31
  %12 = load ptr, ptr %3, align 8, !tbaa !133
  %13 = getelementptr inbounds nuw %struct.load_index_extensions, ptr %12, i32 0, i32 3
  %14 = load i64, ptr %13, align 8, !tbaa !120
  %15 = load ptr, ptr @the_repository, align 8, !tbaa !48
  %16 = getelementptr inbounds nuw %struct.repository, ptr %15, i32 0, i32 17
  %17 = load ptr, ptr %16, align 8, !tbaa !49
  %18 = getelementptr inbounds nuw %struct.git_hash_algo, ptr %17, i32 0, i32 2
  %19 = load i64, ptr %18, align 8, !tbaa !109
  %20 = sub i64 %14, %19
  %21 = sub i64 %20, 8
  %22 = icmp ule i64 %11, %21
  br i1 %22, label %23, label %65

23:                                               ; preds = %10
  call void @llvm.lifetime.start.p0(i64 4, ptr %5) #12
  %24 = load ptr, ptr %3, align 8, !tbaa !133
  %25 = getelementptr inbounds nuw %struct.load_index_extensions, ptr %24, i32 0, i32 2
  %26 = load ptr, ptr %25, align 8, !tbaa !119
  %27 = load i64, ptr %4, align 8, !tbaa !31
  %28 = getelementptr inbounds nuw i8, ptr %26, i64 %27
  %29 = getelementptr inbounds i8, ptr %28, i64 4
  %30 = call i32 @get_be32(ptr noundef %29)
  store i32 %30, ptr %5, align 4, !tbaa !9
  %31 = load ptr, ptr %3, align 8, !tbaa !133
  %32 = getelementptr inbounds nuw %struct.load_index_extensions, ptr %31, i32 0, i32 1
  %33 = load ptr, ptr %32, align 8, !tbaa !117
  %34 = load ptr, ptr %3, align 8, !tbaa !133
  %35 = getelementptr inbounds nuw %struct.load_index_extensions, ptr %34, i32 0, i32 2
  %36 = load ptr, ptr %35, align 8, !tbaa !119
  %37 = load i64, ptr %4, align 8, !tbaa !31
  %38 = getelementptr inbounds nuw i8, ptr %36, i64 %37
  %39 = load ptr, ptr %3, align 8, !tbaa !133
  %40 = getelementptr inbounds nuw %struct.load_index_extensions, ptr %39, i32 0, i32 2
  %41 = load ptr, ptr %40, align 8, !tbaa !119
  %42 = load i64, ptr %4, align 8, !tbaa !31
  %43 = getelementptr inbounds nuw i8, ptr %41, i64 %42
  %44 = getelementptr inbounds i8, ptr %43, i64 8
  %45 = load i32, ptr %5, align 4, !tbaa !9
  %46 = zext i32 %45 to i64
  %47 = call i32 @read_index_extension(ptr noundef %33, ptr noundef %38, ptr noundef %44, i64 noundef %46)
  %48 = icmp slt i32 %47, 0
  br i1 %48, label %49, label %58

49:                                               ; preds = %23
  %50 = load ptr, ptr %3, align 8, !tbaa !133
  %51 = getelementptr inbounds nuw %struct.load_index_extensions, ptr %50, i32 0, i32 2
  %52 = load ptr, ptr %51, align 8, !tbaa !119
  %53 = load ptr, ptr %3, align 8, !tbaa !133
  %54 = getelementptr inbounds nuw %struct.load_index_extensions, ptr %53, i32 0, i32 3
  %55 = load i64, ptr %54, align 8, !tbaa !120
  %56 = call i32 @munmap(ptr noundef %52, i64 noundef %55) #12
  %57 = call ptr @_(ptr noundef @.str.32)
  call void (ptr, ...) @die(ptr noundef %57) #14
  unreachable

58:                                               ; preds = %23
  %59 = load i64, ptr %4, align 8, !tbaa !31
  %60 = add i64 %59, 8
  store i64 %60, ptr %4, align 8, !tbaa !31
  %61 = load i32, ptr %5, align 4, !tbaa !9
  %62 = zext i32 %61 to i64
  %63 = load i64, ptr %4, align 8, !tbaa !31
  %64 = add i64 %63, %62
  store i64 %64, ptr %4, align 8, !tbaa !31
  call void @llvm.lifetime.end.p0(i64 4, ptr %5) #12
  br label %10, !llvm.loop !135

65:                                               ; preds = %10
  call void @llvm.lifetime.end.p0(i64 8, ptr %4) #12
  call void @llvm.lifetime.end.p0(i64 8, ptr %3) #12
  ret ptr null
}