; Function Attrs: nounwind uwtable
define internal noalias noundef ptr @load_index_extensions(ptr noundef readonly captures(none) %0) #0 {
  %2 = getelementptr inbounds nuw i8, ptr %0, i64 32
  %3 = load i64, ptr %2, align 8, !tbaa !110
  %4 = getelementptr inbounds nuw i8, ptr %0, i64 24
  %5 = load i64, ptr %4, align 8, !tbaa !109
  %6 = load ptr, ptr @the_repository, align 8, !tbaa !52
  %7 = getelementptr inbounds nuw i8, ptr %6, i64 400
  %8 = load ptr, ptr %7, align 8, !tbaa !54
  %9 = getelementptr inbounds nuw i8, ptr %8, i64 16
  %10 = load i64, ptr %9, align 8, !tbaa !95
  %11 = add i64 %5, -8
  %12 = sub i64 %11, %10
  %.not24 = icmp ugt i64 %3, %12
  br i1 %.not24, label %._crit_edge, label %.lr.ph

.lr.ph:                                           ; preds = %1
  %13 = getelementptr inbounds nuw i8, ptr %0, i64 16
  %14 = getelementptr inbounds nuw i8, ptr %0, i64 8
  br label %15

15:                                               ; preds = %.lr.ph, %read_index_extension.exit
  %16 = phi ptr [ %8, %.lr.ph ], [ %93, %read_index_extension.exit ]
  %.025 = phi i64 [ %3, %.lr.ph ], [ %89, %read_index_extension.exit ]
  %17 = load ptr, ptr %13, align 8, !tbaa !108
  %18 = getelementptr inbounds nuw i8, ptr %17, i64 %.025
  %19 = getelementptr inbounds nuw i8, ptr %18, i64 4
  %20 = load i8, ptr %19, align 1, !tbaa !38
  %21 = zext i8 %20 to i64
  %22 = shl nuw nsw i64 %21, 24
  %23 = getelementptr inbounds nuw i8, ptr %18, i64 5
  %24 = load i8, ptr %23, align 1, !tbaa !38
  %25 = zext i8 %24 to i64
  %26 = shl nuw nsw i64 %25, 16
  %27 = or disjoint i64 %26, %22
  %28 = getelementptr inbounds nuw i8, ptr %18, i64 6
  %29 = load i8, ptr %28, align 1, !tbaa !38
  %30 = zext i8 %29 to i64
  %31 = shl nuw nsw i64 %30, 8
  %32 = or disjoint i64 %27, %31
  %33 = getelementptr inbounds nuw i8, ptr %18, i64 7
  %34 = load i8, ptr %33, align 1, !tbaa !38
  %35 = zext i8 %34 to i64
  %36 = or disjoint i64 %32, %35
  %37 = load ptr, ptr %14, align 8, !tbaa !106
  %38 = getelementptr inbounds nuw i8, ptr %18, i64 8
  %39 = load i8, ptr %18, align 1, !tbaa !38
  %40 = sext i8 %39 to i32
  %41 = shl nsw i32 %40, 24
  %42 = getelementptr inbounds nuw i8, ptr %18, i64 1
  %43 = load i8, ptr %42, align 1, !tbaa !38
  %44 = sext i8 %43 to i32
  %45 = shl nsw i32 %44, 16
  %46 = or i32 %45, %41
  %47 = getelementptr inbounds nuw i8, ptr %18, i64 2
  %48 = load i8, ptr %47, align 1, !tbaa !38
  %49 = sext i8 %48 to i32
  %50 = shl nsw i32 %49, 8
  %51 = or i32 %46, %50
  %52 = getelementptr inbounds nuw i8, ptr %18, i64 3
  %53 = load i8, ptr %52, align 1, !tbaa !38
  %54 = sext i8 %53 to i32
  %55 = or i32 %51, %54
  switch i32 %55, label %71 [
    i32 1414677829, label %56
    i32 1380275523, label %59
    i32 1818848875, label %62
    i32 1431196754, label %64
    i32 1179864398, label %67
    i32 1162824005, label %read_index_extension.exit
    i32 1229279060, label %read_index_extension.exit
    i32 1935960434, label %69
  ]

56:                                               ; preds = %15
  %57 = tail call ptr @cache_tree_read(ptr noundef nonnull %38, i64 noundef range(i64 0, 4294967296) %36) #30
  %58 = getelementptr inbounds nuw i8, ptr %37, i64 32
  store ptr %57, ptr %58, align 8, !tbaa !133
  br label %read_index_extension.exit

59:                                               ; preds = %15
  %60 = tail call ptr @resolve_undo_read(ptr noundef nonnull %38, i64 noundef range(i64 0, 4294967296) %36, ptr noundef nonnull %16) #30
  %61 = getelementptr inbounds nuw i8, ptr %37, i64 24
  store ptr %60, ptr %61, align 8, !tbaa !134
  br label %read_index_extension.exit

62:                                               ; preds = %15
  %63 = tail call i32 @read_link_extension(ptr noundef %37, ptr noundef nonnull %38, i64 noundef range(i64 0, 4294967296) %36) #30
  %.not.i = icmp eq i32 %63, 0
  br i1 %.not.i, label %read_index_extension.exit, label %.loopexit

64:                                               ; preds = %15
  %65 = tail call ptr @read_untracked_extension(ptr noundef nonnull %38, i64 noundef range(i64 0, 4294967296) %36) #30
  %66 = getelementptr inbounds nuw i8, ptr %37, i64 200
  store ptr %65, ptr %66, align 8, !tbaa !135
  br label %read_index_extension.exit

67:                                               ; preds = %15
  %68 = tail call i32 @read_fsmonitor_extension(ptr noundef %37, ptr noundef nonnull %38, i64 noundef range(i64 0, 4294967296) %36) #30
  br label %read_index_extension.exit

69:                                               ; preds = %15
  %70 = getelementptr inbounds nuw i8, ptr %37, i64 60
  store i32 1, ptr %70, align 4, !tbaa !41
  br label %read_index_extension.exit

71:                                               ; preds = %15
  %72 = add i8 %39, -91
  %or.cond.i = icmp ult i8 %72, -26
  br i1 %or.cond.i, label %73, label %78

73:                                               ; preds = %71
  %74 = load i32, ptr @git_gettext_enabled, align 4, !tbaa !32
  %.not4.i.i = icmp eq i32 %74, 0
  br i1 %.not4.i.i, label %_.exit.i, label %75

75:                                               ; preds = %73
  %76 = tail call ptr @dcgettext(ptr noundef null, ptr noundef nonnull @.str.64, i32 noundef 5) #30
  br label %_.exit.i

_.exit.i:                                         ; preds = %75, %73
  %.0.i.i = phi ptr [ %76, %75 ], [ @.str.64, %73 ]
  %77 = tail call i32 (ptr, ...) @error(ptr noundef %.0.i.i, ptr noundef nonnull %18) #30
  br label %.loopexit

78:                                               ; preds = %71
  %79 = load ptr, ptr @stderr, align 8, !tbaa !136
  %80 = load i32, ptr @git_gettext_enabled, align 4, !tbaa !32
  %.not4.i25.i = icmp eq i32 %80, 0
  br i1 %.not4.i25.i, label %_.exit27.i, label %81

81:                                               ; preds = %78
  %82 = tail call ptr @dcgettext(ptr noundef null, ptr noundef nonnull @.str.65, i32 noundef 5) #30
  br label %_.exit27.i

_.exit27.i:                                       ; preds = %81, %78
  %.0.i26.i = phi ptr [ %82, %81 ], [ @.str.65, %78 ]
  %83 = tail call i32 (ptr, ptr, ...) @fprintf_ln(ptr noundef %79, ptr noundef %.0.i26.i, ptr noundef nonnull %18) #30
  br label %read_index_extension.exit

.loopexit:                                        ; preds = %62, %_.exit.i
  %84 = load ptr, ptr %13, align 8, !tbaa !108
  %85 = load i64, ptr %4, align 8, !tbaa !109
  %86 = tail call i32 @munmap(ptr noundef %84, i64 noundef %85) #30
  %87 = tail call fastcc ptr @_(ptr noundef nonnull @.str.32)
  tail call void (ptr, ...) @die(ptr noundef %87) #31
  unreachable

read_index_extension.exit:                        ; preds = %_.exit27.i, %69, %67, %64, %62, %59, %56, %15, %15
  %88 = add i64 %.025, 8
  %89 = add i64 %88, %36
  %90 = load i64, ptr %4, align 8, !tbaa !109
  %91 = load ptr, ptr @the_repository, align 8, !tbaa !52
  %92 = getelementptr inbounds nuw i8, ptr %91, i64 400
  %93 = load ptr, ptr %92, align 8, !tbaa !54
  %94 = getelementptr inbounds nuw i8, ptr %93, i64 16
  %95 = load i64, ptr %94, align 8, !tbaa !95
  %96 = add i64 %90, -8
  %97 = sub i64 %96, %95
  %.not = icmp ugt i64 %89, %97
  br i1 %.not, label %._crit_edge, label %15, !llvm.loop !138

._crit_edge:                                      ; preds = %read_index_extension.exit, %1
  ret ptr null
}